target datalayout = "e-m:e-p270:32:32-p271:32:32-p272:64:64-i64:64-i128:128-f80:128-n8:16:32:64-S128"
target triple = "x86_64-pc-linux-gnu"

%"class.duckdb_re2::Prog::Inst" = type { i32, %union.anon }
%union.anon = type { i32 }
%struct.anon = type { i8, i8, i16 }
%"class.std::__cxx11::basic_string" = type { %"struct.std::__cxx11::basic_string<char>::_Alloc_hider", i64, %union.anon.0 }
%"struct.std::__cxx11::basic_string<char>::_Alloc_hider" = type { ptr }
%union.anon.0 = type { i64, [8 x i8] }

@.str = private unnamed_addr constant [10 x i8] c"opcode %d\00", align 1
@.str.1 = private unnamed_addr constant [15 x i8] c"alt -> %d | %d\00", align 1
@.str.2 = private unnamed_addr constant [20 x i8] c"altmatch -> %d | %d\00", align 1
@.str.3 = private unnamed_addr constant [28 x i8] c"byte%s [%02x-%02x] %d -> %d\00", align 1
@.str.4 = private unnamed_addr constant [3 x i8] c"/i\00", align 1
@.str.5 = private unnamed_addr constant [1 x i8] zeroinitializer, align 1
@.str.6 = private unnamed_addr constant [17 x i8] c"capture %d -> %d\00", align 1
@.str.7 = private unnamed_addr constant [21 x i8] c"emptywidth %#x -> %d\00", align 1
@.str.8 = private unnamed_addr constant [10 x i8] c"match! %d\00", align 1
@.str.9 = private unnamed_addr constant [10 x i8] c"nop -> %d\00", align 1
@.str.10 = private unnamed_addr constant [5 x i8] c"fail\00", align 1

; Function Attrs: mustprogress nounwind uwtable
define linkonce_odr hidden noundef i32 @_ZN10duckdb_re24Prog4Inst8match_idEv(ptr noundef nonnull align 4 dereferenceable(8) %0) #1 comdat align 2 {
  %2 = alloca ptr, align 8
  store ptr %0, ptr %2, align 8, !tbaa !3
  %3 = load ptr, ptr %2, align 8
  %4 = getelementptr inbounds nuw %"class.duckdb_re2::Prog::Inst", ptr %3, i32 0, i32 1
  %5 = load i32, ptr %4, align 4, !tbaa !10
  ret i32 %5
}

; Function Attrs: mustprogress nounwind uwtable
define linkonce_odr hidden noundef i32 @_ZN10duckdb_re24Prog4Inst4hintEv(ptr noundef nonnull align 4 dereferenceable(8) %0) #1 comdat align 2 {
  %2 = alloca ptr, align 8
  store ptr %0, ptr %2, align 8, !tbaa !3
  %3 = load ptr, ptr %2, align 8
  %4 = getelementptr inbounds nuw %"class.duckdb_re2::Prog::Inst", ptr %3, i32 0, i32 1
  %5 = getelementptr inbounds nuw %struct.anon, ptr %4, i32 0, i32 2
  %6 = load i16, ptr %5, align 2, !tbaa !10
  %7 = zext i16 %6 to i32
  %8 = ashr i32 %7, 1
  ret i32 %8
}

; Function Attrs: mustprogress nounwind uwtable
define linkonce_odr hidden noundef i32 @_ZN10duckdb_re24Prog4Inst8foldcaseEv(ptr noundef nonnull align 4 dereferenceable(8) %0) #1 comdat align 2 {
  %2 = alloca ptr, align 8
  store ptr %0, ptr %2, align 8, !tbaa !3
  %3 = load ptr, ptr %2, align 8
  %4 = getelementptr inbounds nuw %"class.duckdb_re2::Prog::Inst", ptr %3, i32 0, i32 1
  %5 = getelementptr inbounds nuw %struct.anon, ptr %4, i32 0, i32 2
  %6 = load i16, ptr %5, align 2, !tbaa !10
  %7 = zext i16 %6 to i32
  %8 = and i32 %7, 1
  ret i32 %8
}

; Function Attrs: mustprogress nounwind uwtable
define linkonce_odr hidden noundef i32 @_ZN10duckdb_re24Prog4Inst3outEv(ptr noundef nonnull align 4 dereferenceable(8) %0) #1 comdat align 2 {
  %2 = alloca ptr, align 8
  store ptr %0, ptr %2, align 8, !tbaa !3
  %3 = load ptr, ptr %2, align 8
  %4 = getelementptr inbounds nuw %"class.duckdb_re2::Prog::Inst", ptr %3, i32 0, i32 0
  %5 = load i32, ptr %4, align 4, !tbaa !13
  %6 = lshr i32 %5, 4
  ret i32 %6
}

; Function Attrs: mustprogress nounwind uwtable
define linkonce_odr hidden noundef i32 @_ZN10duckdb_re24Prog4Inst6opcodeEv(ptr noundef nonnull align 4 dereferenceable(8) %0) #1 comdat align 2 {
  %2 = alloca ptr, align 8
  store ptr %0, ptr %2, align 8, !tbaa !3
  %3 = load ptr, ptr %2, align 8
  %4 = getelementptr inbounds nuw %"class.duckdb_re2::Prog::Inst", ptr %3, i32 0, i32 0
  %5 = load i32, ptr %4, align 4, !tbaa !13
  %6 = and i32 %5, 7
  ret i32 %6
}

; Function Attrs: mustprogress uwtable
define hidden void @_ZN10duckdb_re24Prog4Inst4DumpB5cxx11Ev(ptr dead_on_unwind noalias writable sret(%"class.std::__cxx11::basic_string") align 8 %0, ptr noundef nonnull align 4 dereferenceable(8) %1) #0 align 2 {
  %3 = alloca ptr, align 8
  %4 = alloca ptr, align 8
  store ptr %0, ptr %3, align 8
  store ptr %1, ptr %4, align 8, !tbaa !3
  %5 = load ptr, ptr %4, align 8
  %6 = call noundef i32 @_ZN10duckdb_re24Prog4Inst6opcodeEv(ptr noundef nonnull align 4 dereferenceable(8) %5)
  switch i32 %6, label %7 [
    i32 0, label %9
    i32 1, label %13
    i32 2, label %17
    i32 3, label %31
    i32 4, label %35
    i32 5, label %39
    i32 6, label %41
    i32 7, label %43
  ]

7:                                                ; preds = %2
  %8 = call noundef i32 @_ZN10duckdb_re24Prog4Inst6opcodeEv(ptr noundef nonnull align 4 dereferenceable(8) %5)
  call void (ptr, ptr, ...) @_ZN10duckdb_re212StringPrintfB5cxx11EPKcz(ptr dead_on_unwind writable sret(%"class.std::__cxx11::basic_string") align 8 %0, ptr noundef @.str, i32 noundef %8)
  br label %44

9:                                                ; preds = %2
  %10 = call noundef i32 @_ZN10duckdb_re24Prog4Inst3outEv(ptr noundef nonnull align 4 dereferenceable(8) %5)
  %11 = getelementptr inbounds nuw %"class.duckdb_re2::Prog::Inst", ptr %5, i32 0, i32 1
  %12 = load i32, ptr %11, align 4, !tbaa !10
  call void (ptr, ptr, ...) @_ZN10duckdb_re212StringPrintfB5cxx11EPKcz(ptr dead_on_unwind writable sret(%"class.std::__cxx11::basic_string") align 8 %0, ptr noundef @.str.1, i32 noundef %10, i32 noundef %12)
  br label %44

13:                                               ; preds = %2
  %14 = call noundef i32 @_ZN10duckdb_re24Prog4Inst3outEv(ptr noundef nonnull align 4 dereferenceable(8) %5)
  %15 = getelementptr inbounds nuw %"class.duckdb_re2::Prog::Inst", ptr %5, i32 0, i32 1
  %16 = load i32, ptr %15, align 4, !tbaa !10
  call void (ptr, ptr, ...) @_ZN10duckdb_re212StringPrintfB5cxx11EPKcz(ptr dead_on_unwind writable sret(%"class.std::__cxx11::basic_string") align 8 %0, ptr noundef @.str.2, i32 noundef %14, i32 noundef %16)
  br label %44

17:                                               ; preds = %2
  %18 = call noundef i32 @_ZN10duckdb_re24Prog4Inst8foldcaseEv(ptr noundef nonnull align 4 dereferenceable(8) %5)
  %19 = icmp ne i32 %18, 0
  %20 = select i1 %19, ptr @.str.4, ptr @.str.5
  %21 = getelementptr inbounds nuw %"class.duckdb_re2::Prog::Inst", ptr %5, i32 0, i32 1
  %22 = getelementptr inbounds nuw %struct.anon, ptr %21, i32 0, i32 0
  %23 = load i8, ptr %22, align 4, !tbaa !10
  %24 = zext i8 %23 to i32
  %25 = getelementptr inbounds nuw %"class.duckdb_re2::Prog::Inst", ptr %5, i32 0, i32 1
  %26 = getelementptr inbounds nuw %struct.anon, ptr %25, i32 0, i32 1
  %27 = load i8, ptr %26, align 1, !tbaa !10
  %28 = zext i8 %27 to i32
  %29 = call noundef i32 @_ZN10duckdb_re24Prog4Inst4hintEv(ptr noundef nonnull align 4 dereferenceable(8) %5)
  %30 = call noundef i32 @_ZN10duckdb_re24Prog4Inst3outEv(ptr noundef nonnull align 4 dereferenceable(8) %5)
  call void (ptr, ptr, ...) @_ZN10duckdb_re212StringPrintfB5cxx11EPKcz(ptr dead_on_unwind writable sret(%"class.std::__cxx11::basic_string") align 8 %0, ptr noundef @.str.3, ptr noundef %20, i32 noundef %24, i32 noundef %28, i32 noundef %29, i32 noundef %30)
  br label %44

31:                                               ; preds = %2
  %32 = getelementptr inbounds nuw %"class.duckdb_re2::Prog::Inst", ptr %5, i32 0, i32 1
  %33 = load i32, ptr %32, align 4, !tbaa !10
  %34 = call noundef i32 @_ZN10duckdb_re24Prog4Inst3outEv(ptr noundef nonnull align 4 dereferenceable(8) %5)
  call void (ptr, ptr, ...) @_ZN10duckdb_re212StringPrintfB5cxx11EPKcz(ptr dead_on_unwind writable sret(%"class.std::__cxx11::basic_string") align 8 %0, ptr noundef @.str.6, i32 noundef %33, i32 noundef %34)
  br label %44

35:                                               ; preds = %2
  %36 = getelementptr inbounds nuw %"class.duckdb_re2::Prog::Inst", ptr %5, i32 0, i32 1
  %37 = load i32, ptr %36, align 4, !tbaa !10
  %38 = call noundef i32 @_ZN10duckdb_re24Prog4Inst3outEv(ptr noundef nonnull align 4 dereferenceable(8) %5)
  call void (ptr, ptr, ...) @_ZN10duckdb_re212StringPrintfB5cxx11EPKcz(ptr dead_on_unwind writable sret(%"class.std::__cxx11::basic_string") align 8 %0, ptr noundef @.str.7, i32 noundef %37, i32 noundef %38)
  br label %44

39:                                               ; preds = %2
  %40 = call noundef i32 @_ZN10duckdb_re24Prog4Inst8match_idEv(ptr noundef nonnull align 4 dereferenceable(8) %5)
  call void (ptr, ptr, ...) @_ZN10duckdb_re212StringPrintfB5cxx11EPKcz(ptr dead_on_unwind writable sret(%"class.std::__cxx11::basic_string") align 8 %0, ptr noundef @.str.8, i32 noundef %40)
  br label %44

41:                                               ; preds = %2
  %42 = call noundef i32 @_ZN10duckdb_re24Prog4Inst3outEv(ptr noundef nonnull align 4 dereferenceable(8) %5)
  call void (ptr, ptr, ...) @_ZN10duckdb_re212StringPrintfB5cxx11EPKcz(ptr dead_on_unwind writable sret(%"class.std::__cxx11::basic_string") align 8 %0, ptr noundef @.str.9, i32 noundef %42)
  br label %44

43:                                               ; preds = %2
  call void (ptr, ptr, ...) @_ZN10duckdb_re212StringPrintfB5cxx11EPKcz(ptr dead_on_unwind writable sret(%"class.std::__cxx11::basic_string") align 8 %0, ptr noundef @.str.10)
  br label %44

44:                                               ; preds = %43, %41, %39, %35, %31, %17, %13, %9, %7
  ret void
}