; Function Attrs: mustprogress uwtable
define hidden void @_ZN10duckdb_re24Prog4Inst4DumpB5cxx11Ev(ptr dead_on_unwind noalias writable sret(%"class.std::__cxx11::basic_string") align 8 %0, ptr noundef nonnull readonly align 4 captures(none) dereferenceable(8) %1) local_unnamed_addr #1 align 2 {
  %3 = load i32, ptr %1, align 4, !tbaa !3
  %4 = and i32 %3, 7
  switch i32 %4, label %default.unreachable1 [
    i32 0, label %5
    i32 1, label %9
    i32 2, label %13
    i32 3, label %27
    i32 4, label %31
    i32 5, label %35
    i32 6, label %38
    i32 7, label %40
  ]

default.unreachable1:                             ; preds = %2
  unreachable

5:                                                ; preds = %2
  %6 = lshr i32 %3, 4
  %7 = getelementptr inbounds nuw i8, ptr %1, i64 4
  %8 = load i32, ptr %7, align 4, !tbaa !8
  tail call void (ptr, ptr, ...) @_ZN10duckdb_re212StringPrintfB5cxx11EPKcz(ptr dead_on_unwind writable sret(%"class.std::__cxx11::basic_string") align 8 %0, ptr noundef nonnull @.str.1, i32 noundef %6, i32 noundef %8)
  br label %41

9:                                                ; preds = %2
  %10 = lshr i32 %3, 4
  %11 = getelementptr inbounds nuw i8, ptr %1, i64 4
  %12 = load i32, ptr %11, align 4, !tbaa !8
  tail call void (ptr, ptr, ...) @_ZN10duckdb_re212StringPrintfB5cxx11EPKcz(ptr dead_on_unwind writable sret(%"class.std::__cxx11::basic_string") align 8 %0, ptr noundef nonnull @.str.2, i32 noundef %10, i32 noundef %12)
  br label %41

13:                                               ; preds = %2
  %14 = getelementptr inbounds nuw i8, ptr %1, i64 6
  %15 = load i16, ptr %14, align 2, !tbaa !8
  %16 = and i16 %15, 1
  %.not = icmp eq i16 %16, 0
  %17 = select i1 %.not, ptr @.str.5, ptr @.str.4
  %18 = getelementptr inbounds nuw i8, ptr %1, i64 4
  %19 = load i8, ptr %18, align 4, !tbaa !8
  %20 = zext i8 %19 to i32
  %21 = getelementptr inbounds nuw i8, ptr %1, i64 5
  %22 = load i8, ptr %21, align 1, !tbaa !8
  %23 = zext i8 %22 to i32
  %24 = lshr i16 %15, 1
  %25 = zext nneg i16 %24 to i32
  %26 = lshr i32 %3, 4
  tail call void (ptr, ptr, ...) @_ZN10duckdb_re212StringPrintfB5cxx11EPKcz(ptr dead_on_unwind writable sret(%"class.std::__cxx11::basic_string") align 8 %0, ptr noundef nonnull @.str.3, ptr noundef nonnull %17, i32 noundef %20, i32 noundef %23, i32 noundef %25, i32 noundef %26)
  br label %41

27:                                               ; preds = %2
  %28 = getelementptr inbounds nuw i8, ptr %1, i64 4
  %29 = load i32, ptr %28, align 4, !tbaa !8
  %30 = lshr i32 %3, 4
  tail call void (ptr, ptr, ...) @_ZN10duckdb_re212StringPrintfB5cxx11EPKcz(ptr dead_on_unwind writable sret(%"class.std::__cxx11::basic_string") align 8 %0, ptr noundef nonnull @.str.6, i32 noundef %29, i32 noundef %30)
  br label %41

31:                                               ; preds = %2
  %32 = getelementptr inbounds nuw i8, ptr %1, i64 4
  %33 = load i32, ptr %32, align 4, !tbaa !8
  %34 = lshr i32 %3, 4
  tail call void (ptr, ptr, ...) @_ZN10duckdb_re212StringPrintfB5cxx11EPKcz(ptr dead_on_unwind writable sret(%"class.std::__cxx11::basic_string") align 8 %0, ptr noundef nonnull @.str.7, i32 noundef %33, i32 noundef %34)
  br label %41

35:                                               ; preds = %2
  %36 = getelementptr inbounds nuw i8, ptr %1, i64 4
  %37 = load i32, ptr %36, align 4, !tbaa !8
  tail call void (ptr, ptr, ...) @_ZN10duckdb_re212StringPrintfB5cxx11EPKcz(ptr dead_on_unwind writable sret(%"class.std::__cxx11::basic_string") align 8 %0, ptr noundef nonnull @.str.8, i32 noundef %37)
  br label %41

38:                                               ; preds = %2
  %39 = lshr i32 %3, 4
  tail call void (ptr, ptr, ...) @_ZN10duckdb_re212StringPrintfB5cxx11EPKcz(ptr dead_on_unwind writable sret(%"class.std::__cxx11::basic_string") align 8 %0, ptr noundef nonnull @.str.9, i32 noundef %39)
  br label %41

40:                                               ; preds = %2
  tail call void (ptr, ptr, ...) @_ZN10duckdb_re212StringPrintfB5cxx11EPKcz(ptr dead_on_unwind writable sret(%"class.std::__cxx11::basic_string") align 8 %0, ptr noundef nonnull @.str.10)
  br label %41

41:                                               ; preds = %40, %38, %35, %31, %27, %13, %9, %5
  ret void
}